; Function Attrs: mustprogress nounwind uwtable
define dso_local void @_ZN12b3DynamicBvhD2Ev(ptr noundef nonnull align 8 dereferenceable(96) %0) unnamed_addr #1 align 2 personality ptr @__gxx_personality_v0 {
  %2 = load ptr, ptr %0, align 8, !tbaa !28
  %.not.i = icmp eq ptr %2, null
  br i1 %.not.i, label %.noexc, label %3

3:                                                ; preds = %1
  invoke fastcc void @_ZL19b3RecurseDeleteNodeP12b3DynamicBvhP10b3DbvtNode(ptr noundef nonnull align 8 dereferenceable(96) %0, ptr noundef nonnull %2)
          to label %.noexc unwind label %42

.noexc:                                           ; preds = %3, %1
  %4 = getelementptr inbounds nuw i8, ptr %0, i64 8
  %5 = load ptr, ptr %4, align 8, !tbaa !29
  invoke void @_Z21b3AlignedFreeInternalPv(ptr noundef %5)
          to label %.noexc1 unwind label %42

.noexc1:                                          ; preds = %.noexc
  store ptr null, ptr %4, align 8, !tbaa !29
  %6 = getelementptr inbounds nuw i8, ptr %0, i64 16
  store i32 -1, ptr %6, align 8, !tbaa !23
  %7 = getelementptr inbounds nuw i8, ptr %0, i64 48
  %8 = load ptr, ptr %7, align 8, !tbaa !13
  %.not.i.i.i = icmp eq ptr %8, null
  br i1 %.not.i.i.i, label %14, label %9

9:                                                ; preds = %.noexc1
  %10 = getelementptr inbounds nuw i8, ptr %0, i64 56
  %11 = load i8, ptr %10, align 8, !tbaa !4, !range !30, !noundef !31
  %12 = trunc nuw i8 %11 to i1
  br i1 %12, label %13, label %14

13:                                               ; preds = %9
  invoke void @_Z21b3AlignedFreeInternalPv(ptr noundef nonnull %8)
          to label %14 unwind label %42

14:                                               ; preds = %9, %.noexc1, %13
  %15 = getelementptr inbounds nuw i8, ptr %0, i64 36
  %16 = getelementptr inbounds nuw i8, ptr %0, i64 56
  store i8 1, ptr %16, align 8, !tbaa !4
  store ptr null, ptr %7, align 8, !tbaa !13
  store i32 0, ptr %15, align 4, !tbaa !14
  %17 = getelementptr inbounds nuw i8, ptr %0, i64 40
  store i32 0, ptr %17, align 8, !tbaa !15
  %18 = getelementptr inbounds nuw i8, ptr %0, i64 24
  store i32 0, ptr %18, align 8, !tbaa !27
  %19 = getelementptr inbounds nuw i8, ptr %0, i64 80
  %20 = load ptr, ptr %19, align 8, !tbaa !20
  %.not.i.i.i3 = icmp eq ptr %20, null
  br i1 %.not.i.i.i3, label %_ZN20b3AlignedObjectArrayIPK10b3DbvtNodeED2Ev.exit.thread, label %21

21:                                               ; preds = %14
  %22 = getelementptr inbounds nuw i8, ptr %0, i64 88
  %23 = load i8, ptr %22, align 8, !tbaa !16, !range !30, !noundef !31
  %24 = trunc nuw i8 %23 to i1
  br i1 %24, label %25, label %_ZN20b3AlignedObjectArrayIPK10b3DbvtNodeED2Ev.exit.thread

25:                                               ; preds = %21
  invoke void @_Z21b3AlignedFreeInternalPv(ptr noundef nonnull %20)
          to label %_ZN20b3AlignedObjectArrayIPK10b3DbvtNodeED2Ev.exit unwind label %26

26:                                               ; preds = %25
  %27 = landingpad { ptr, i32 }
          catch ptr null
  %28 = extractvalue { ptr, i32 } %27, 0
  tail call void @__clang_call_terminate(ptr %28) #18
  unreachable

_ZN20b3AlignedObjectArrayIPK10b3DbvtNodeED2Ev.exit.thread: ; preds = %14, %21
  %29 = getelementptr inbounds nuw i8, ptr %0, i64 68
  %30 = getelementptr inbounds nuw i8, ptr %0, i64 88
  store i8 1, ptr %30, align 8, !tbaa !16
  store ptr null, ptr %19, align 8, !tbaa !20
  store i32 0, ptr %29, align 4, !tbaa !21
  %31 = getelementptr inbounds nuw i8, ptr %0, i64 72
  store i32 0, ptr %31, align 8, !tbaa !22
  br label %_ZN20b3AlignedObjectArrayIN12b3DynamicBvh6sStkNNEED2Ev.exit

_ZN20b3AlignedObjectArrayIPK10b3DbvtNodeED2Ev.exit: ; preds = %25
  %.pre = load ptr, ptr %7, align 8, !tbaa !13
  %32 = getelementptr inbounds nuw i8, ptr %0, i64 68
  %33 = getelementptr inbounds nuw i8, ptr %0, i64 88
  store i8 1, ptr %33, align 8, !tbaa !16
  store ptr null, ptr %19, align 8, !tbaa !20
  store i32 0, ptr %32, align 4, !tbaa !21
  %34 = getelementptr inbounds nuw i8, ptr %0, i64 72
  store i32 0, ptr %34, align 8, !tbaa !22
  %.not.i.i.i4 = icmp eq ptr %.pre, null
  br i1 %.not.i.i.i4, label %_ZN20b3AlignedObjectArrayIN12b3DynamicBvh6sStkNNEED2Ev.exit, label %35

35:                                               ; preds = %_ZN20b3AlignedObjectArrayIPK10b3DbvtNodeED2Ev.exit
  %36 = load i8, ptr %16, align 8, !tbaa !4, !range !30, !noundef !31
  %37 = trunc nuw i8 %36 to i1
  br i1 %37, label %38, label %_ZN20b3AlignedObjectArrayIN12b3DynamicBvh6sStkNNEED2Ev.exit

38:                                               ; preds = %35
  invoke void @_Z21b3AlignedFreeInternalPv(ptr noundef nonnull %.pre)
          to label %_ZN20b3AlignedObjectArrayIN12b3DynamicBvh6sStkNNEED2Ev.exit unwind label %39

39:                                               ; preds = %38
  %40 = landingpad { ptr, i32 }
          catch ptr null
  %41 = extractvalue { ptr, i32 } %40, 0
  tail call void @__clang_call_terminate(ptr %41) #18
  unreachable

_ZN20b3AlignedObjectArrayIN12b3DynamicBvh6sStkNNEED2Ev.exit: ; preds = %_ZN20b3AlignedObjectArrayIPK10b3DbvtNodeED2Ev.exit.thread, %_ZN20b3AlignedObjectArrayIPK10b3DbvtNodeED2Ev.exit, %35, %38
  store i8 1, ptr %16, align 8, !tbaa !4
  store ptr null, ptr %7, align 8, !tbaa !13
  store i32 0, ptr %15, align 4, !tbaa !14
  store i32 0, ptr %17, align 8, !tbaa !15
  ret void

42:                                               ; preds = %13, %.noexc, %3
  %43 = landingpad { ptr, i32 }
          catch ptr null
  %44 = extractvalue { ptr, i32 } %43, 0
  tail call void @__clang_call_terminate(ptr %44) #18
  unreachable
}